target datalayout = "e-m:e-p270:32:32-p271:32:32-p272:64:64-i64:64-i128:128-f80:128-n8:16:32:64-S128"
target triple = "x86_64-pc-linux-gnu"

%struct.ident_t = type { i32, i32, i32, i32, ptr }
%struct.__loadu_ps.8 = type { <4 x float> }

@1 = private unnamed_addr constant %struct.ident_t { i32 0, i32 514, i32 0, i32 22, ptr @0 }, align 8

; Function Attrs: alwaysinline mustprogress nounwind uwtable
define internal noundef nofpclass(nan inf) <4 x float> @_ZL10_mm_add_psDv4_fS_(<4 x float> noundef nofpclass(nan inf) %0, <4 x float> noundef nofpclass(nan inf) %1) #11 {
  %3 = alloca <4 x float>, align 16
  %4 = alloca <4 x float>, align 16
  store <4 x float> %0, ptr %3, align 16, !tbaa !55
  store <4 x float> %1, ptr %4, align 16, !tbaa !55
  %5 = load <4 x float>, ptr %3, align 16, !tbaa !55
  %6 = load <4 x float>, ptr %4, align 16, !tbaa !55
  %7 = fadd fast <4 x float> %5, %6
  ret <4 x float> %7
}

; Function Attrs: alwaysinline mustprogress nounwind uwtable
define internal noundef nofpclass(nan inf) <4 x float> @_ZL10_mm_mul_psDv4_fS_(<4 x float> noundef nofpclass(nan inf) %0, <4 x float> noundef nofpclass(nan inf) %1) #11 {
  %3 = alloca <4 x float>, align 16
  %4 = alloca <4 x float>, align 16
  store <4 x float> %0, ptr %3, align 16, !tbaa !55
  store <4 x float> %1, ptr %4, align 16, !tbaa !55
  %5 = load <4 x float>, ptr %3, align 16, !tbaa !55
  %6 = load <4 x float>, ptr %4, align 16, !tbaa !55
  %7 = fmul fast <4 x float> %5, %6
  ret <4 x float> %7
}

; Function Attrs: alwaysinline mustprogress nounwind uwtable
define internal noundef nofpclass(nan inf) <4 x float> @_ZL10_mm_min_psDv4_fS_(<4 x float> noundef nofpclass(nan inf) %0, <4 x float> noundef nofpclass(nan inf) %1) #11 {
  %3 = alloca <4 x float>, align 16
  %4 = alloca <4 x float>, align 16
  store <4 x float> %0, ptr %3, align 16, !tbaa !55
  store <4 x float> %1, ptr %4, align 16, !tbaa !55
  %5 = load <4 x float>, ptr %3, align 16, !tbaa !55
  %6 = load <4 x float>, ptr %4, align 16, !tbaa !55
  %7 = call fast <4 x float> @llvm.x86.sse.min.ps(<4 x float> %5, <4 x float> %6)
  ret <4 x float> %7
}

; Function Attrs: alwaysinline mustprogress nounwind uwtable
define internal noundef nofpclass(nan inf) <4 x float> @_ZL10_mm_max_psDv4_fS_(<4 x float> noundef nofpclass(nan inf) %0, <4 x float> noundef nofpclass(nan inf) %1) #11 {
  %3 = alloca <4 x float>, align 16
  %4 = alloca <4 x float>, align 16
  store <4 x float> %0, ptr %3, align 16, !tbaa !55
  store <4 x float> %1, ptr %4, align 16, !tbaa !55
  %5 = load <4 x float>, ptr %3, align 16, !tbaa !55
  %6 = load <4 x float>, ptr %4, align 16, !tbaa !55
  %7 = call fast <4 x float> @llvm.x86.sse.max.ps(<4 x float> %5, <4 x float> %6)
  ret <4 x float> %7
}

; Function Attrs: alwaysinline mustprogress nounwind uwtable
define internal noundef nofpclass(nan inf) <4 x float> @_ZL14_mm_setzero_psv() #11 {
  %1 = alloca <4 x float>, align 16
  store <4 x float> zeroinitializer, ptr %1, align 16, !tbaa !55
  %2 = load <4 x float>, ptr %1, align 16, !tbaa !55
  ret <4 x float> %2
}

; Function Attrs: noinline noreturn nounwind uwtable
define linkonce_odr hidden void @__clang_call_terminate(ptr noundef %0) #8 comdat {
  %2 = call ptr @__cxa_begin_catch(ptr %0) #6
  call void @_ZSt9terminatev() #19
  unreachable
}

; Function Attrs: alwaysinline mustprogress nounwind uwtable
define internal void @_ZL12_mm_store_psPfDv4_f(ptr noundef %0, <4 x float> noundef nofpclass(nan inf) %1) #11 {
  %3 = alloca ptr, align 8
  %4 = alloca <4 x float>, align 16
  store ptr %0, ptr %3, align 8, !tbaa !43
  store <4 x float> %1, ptr %4, align 16, !tbaa !55
  %5 = load <4 x float>, ptr %4, align 16, !tbaa !55
  %6 = load ptr, ptr %3, align 8, !tbaa !43
  store <4 x float> %5, ptr %6, align 16, !tbaa !55
  ret void
}

; Function Attrs: alwaysinline mustprogress uwtable
define internal noundef nofpclass(nan inf) <4 x float> @_ZL9prelu_sseDv4_fS_(<4 x float> noundef nofpclass(nan inf) %0, <4 x float> noundef nofpclass(nan inf) %1) #12 {
  %3 = alloca <4 x float>, align 16
  %4 = alloca <4 x float>, align 16
  %5 = alloca <4 x float>, align 16
  %6 = alloca <4 x float>, align 16
  store <4 x float> %0, ptr %3, align 16, !tbaa !55
  store <4 x float> %1, ptr %4, align 16, !tbaa !55
  call void @llvm.lifetime.start.p0(i64 16, ptr %5) #6
  %7 = call fast noundef nofpclass(nan inf) <4 x float> @_ZL14_mm_setzero_psv()
  %8 = load <4 x float>, ptr %3, align 16, !tbaa !55
  %9 = call fast noundef nofpclass(nan inf) <4 x float> @_ZL10_mm_max_psDv4_fS_(<4 x float> noundef nofpclass(nan inf) %7, <4 x float> noundef nofpclass(nan inf) %8)
  store <4 x float> %9, ptr %5, align 16, !tbaa !55
  call void @llvm.lifetime.start.p0(i64 16, ptr %6) #6
  %10 = call fast noundef nofpclass(nan inf) <4 x float> @_ZL14_mm_setzero_psv()
  %11 = load <4 x float>, ptr %3, align 16, !tbaa !55
  %12 = call fast noundef nofpclass(nan inf) <4 x float> @_ZL10_mm_min_psDv4_fS_(<4 x float> noundef nofpclass(nan inf) %10, <4 x float> noundef nofpclass(nan inf) %11)
  store <4 x float> %12, ptr %6, align 16, !tbaa !55
  %13 = load <4 x float>, ptr %5, align 16, !tbaa !55
  %14 = load <4 x float>, ptr %4, align 16, !tbaa !55
  %15 = load <4 x float>, ptr %6, align 16, !tbaa !55
  %16 = call fast noundef nofpclass(nan inf) <4 x float> @_ZL10_mm_mul_psDv4_fS_(<4 x float> noundef nofpclass(nan inf) %14, <4 x float> noundef nofpclass(nan inf) %15)
  %17 = call fast noundef nofpclass(nan inf) <4 x float> @_ZL10_mm_add_psDv4_fS_(<4 x float> noundef nofpclass(nan inf) %13, <4 x float> noundef nofpclass(nan inf) %16)
  call void @llvm.lifetime.end.p0(i64 16, ptr %6) #6
  call void @llvm.lifetime.end.p0(i64 16, ptr %5) #6
  ret <4 x float> %17
}

; Function Attrs: alwaysinline mustprogress nounwind uwtable
define internal noundef nofpclass(nan inf) <4 x float> @_ZL12_mm_loadu_psPKf(ptr noundef %0) #11 {
  %2 = alloca ptr, align 8
  store ptr %0, ptr %2, align 8, !tbaa !43
  %3 = load ptr, ptr %2, align 8, !tbaa !43
  %4 = getelementptr inbounds nuw %struct.__loadu_ps.8, ptr %3, i32 0, i32 0
  %5 = load <4 x float>, ptr %4, align 1, !tbaa !55
  ret <4 x float> %5
}

; Function Attrs: alwaysinline mustprogress nounwind uwtable
define internal noundef nofpclass(nan inf) <4 x float> @_ZL11_mm_load_psPKf(ptr noundef %0) #11 {
  %2 = alloca ptr, align 8
  store ptr %0, ptr %2, align 8, !tbaa !43
  %3 = load ptr, ptr %2, align 8, !tbaa !43
  %4 = load <4 x float>, ptr %3, align 16, !tbaa !55
  ret <4 x float> %4
}

; Function Attrs: alwaysinline norecurse nounwind uwtable
define internal void @_ZNK4ncnn13PReLU_x86_avx15forward_inplaceERNS_3MatERKNS_6OptionE.omp_outlined.1(ptr noalias noundef %0, ptr noalias noundef %1, ptr noundef nonnull align 4 dereferenceable(4) %2, ptr noundef nonnull align 4 dereferenceable(4) %3, ptr noundef nonnull align 8 dereferenceable(8) %4, ptr noundef nonnull align 8 dereferenceable(8) %5) #10 personality ptr @__gxx_personality_v0 {
  %7 = alloca ptr, align 8
  %8 = alloca ptr, align 8
  %9 = alloca ptr, align 8
  %10 = alloca ptr, align 8
  %11 = alloca ptr, align 8
  %12 = alloca ptr, align 8
  %13 = alloca i32, align 4
  %14 = alloca i32, align 4
  %15 = alloca i32, align 4
  %16 = alloca i32, align 4
  %17 = alloca i32, align 4
  %18 = alloca i32, align 4
  %19 = alloca i32, align 4
  %20 = alloca i32, align 4
  %21 = alloca i32, align 4
  %22 = alloca i32, align 4
  %23 = alloca <4 x float>, align 16
  %24 = alloca <4 x float>, align 16
  store ptr %0, ptr %7, align 8, !tbaa !51
  store ptr %1, ptr %8, align 8, !tbaa !51
  store ptr %2, ptr %9, align 8, !tbaa !51
  store ptr %3, ptr %10, align 8, !tbaa !51
  store ptr %4, ptr %11, align 8, !tbaa !52
  store ptr %5, ptr %12, align 8, !tbaa !52
  %25 = load ptr, ptr %9, align 8, !tbaa !51
  %26 = load ptr, ptr %10, align 8, !tbaa !51
  %27 = load ptr, ptr %11, align 8, !tbaa !52
  %28 = load ptr, ptr %12, align 8, !tbaa !52
  call void @llvm.lifetime.start.p0(i64 4, ptr %13) #6
  call void @llvm.lifetime.start.p0(i64 4, ptr %14) #6
  %29 = load i32, ptr %25, align 4, !tbaa !23
  store i32 %29, ptr %14, align 4, !tbaa !23
  call void @llvm.lifetime.start.p0(i64 4, ptr %15) #6
  %30 = load i32, ptr %14, align 4, !tbaa !23
  %31 = sub nsw i32 %30, 0
  %32 = sdiv i32 %31, 1
  %33 = sub nsw i32 %32, 1
  store i32 %33, ptr %15, align 4, !tbaa !23
  call void @llvm.lifetime.start.p0(i64 4, ptr %16) #6
  store i32 0, ptr %16, align 4, !tbaa !23
  call void @llvm.lifetime.end.p0(i64 4, ptr %16) #6
  %34 = load i32, ptr %14, align 4, !tbaa !23
  %35 = icmp slt i32 0, %34
  br i1 %35, label %36, label %92

36:                                               ; preds = %6
  call void @llvm.lifetime.start.p0(i64 4, ptr %17) #6
  store i32 0, ptr %17, align 4, !tbaa !23
  call void @llvm.lifetime.start.p0(i64 4, ptr %18) #6
  %37 = load i32, ptr %15, align 4, !tbaa !23
  store i32 %37, ptr %18, align 4, !tbaa !23
  call void @llvm.lifetime.start.p0(i64 4, ptr %19) #6
  store i32 1, ptr %19, align 4, !tbaa !23
  call void @llvm.lifetime.start.p0(i64 4, ptr %20) #6
  store i32 0, ptr %20, align 4, !tbaa !23
  call void @llvm.lifetime.start.p0(i64 4, ptr %21) #6
  %38 = load ptr, ptr %7, align 8
  %39 = load i32, ptr %38, align 4, !tbaa !23
  call void @__kmpc_for_static_init_4(ptr @1, i32 %39, i32 34, ptr %20, ptr %17, ptr %18, ptr %19, i32 1, i32 1)
  %40 = load i32, ptr %18, align 4, !tbaa !23
  %41 = load i32, ptr %15, align 4, !tbaa !23
  %42 = icmp sgt i32 %40, %41
  br i1 %42, label %43, label %45

43:                                               ; preds = %36
  %44 = load i32, ptr %15, align 4, !tbaa !23
  br label %47

45:                                               ; preds = %36
  %46 = load i32, ptr %18, align 4, !tbaa !23
  br label %47

47:                                               ; preds = %45, %43
  %48 = phi i32 [ %44, %43 ], [ %46, %45 ]
  store i32 %48, ptr %18, align 4, !tbaa !23
  %49 = load i32, ptr %17, align 4, !tbaa !23
  store i32 %49, ptr %13, align 4, !tbaa !23
  br label %50

50:                                               ; preds = %85, %47
  %51 = load i32, ptr %13, align 4, !tbaa !23
  %52 = load i32, ptr %18, align 4, !tbaa !23
  %53 = icmp sle i32 %51, %52
  br i1 %53, label %55, label %54

54:                                               ; preds = %50
  br label %88

55:                                               ; preds = %50
  %56 = load i32, ptr %13, align 4, !tbaa !23
  %57 = mul nsw i32 %56, 1
  %58 = add nsw i32 0, %57
  store i32 %58, ptr %21, align 4, !tbaa !23
  call void @llvm.lifetime.start.p0(i64 4, ptr %22) #6
  %59 = load i32, ptr %26, align 4, !tbaa !23
  %60 = load i32, ptr %21, align 4, !tbaa !23
  %61 = mul nsw i32 %60, 4
  %62 = add nsw i32 %59, %61
  store i32 %62, ptr %22, align 4, !tbaa !23
  call void @llvm.lifetime.start.p0(i64 16, ptr %23) #6
  %63 = load ptr, ptr %27, align 8, !tbaa !43
  %64 = load i32, ptr %22, align 4, !tbaa !23
  %65 = sext i32 %64 to i64
  %66 = getelementptr inbounds float, ptr %63, i64 %65
  %67 = invoke noundef nofpclass(nan inf) <4 x float> @_ZL11_mm_load_psPKf(ptr noundef %66)
          to label %68 unwind label %93

68:                                               ; preds = %55
  store <4 x float> %67, ptr %23, align 16, !tbaa !55
  call void @llvm.lifetime.start.p0(i64 16, ptr %24) #6
  %69 = load ptr, ptr %28, align 8, !tbaa !43
  %70 = load i32, ptr %22, align 4, !tbaa !23
  %71 = sext i32 %70 to i64
  %72 = getelementptr inbounds float, ptr %69, i64 %71
  %73 = invoke noundef nofpclass(nan inf) <4 x float> @_ZL12_mm_loadu_psPKf(ptr noundef %72)
          to label %74 unwind label %93

74:                                               ; preds = %68
  store <4 x float> %73, ptr %24, align 16, !tbaa !55
  %75 = load ptr, ptr %27, align 8, !tbaa !43
  %76 = load i32, ptr %22, align 4, !tbaa !23
  %77 = sext i32 %76 to i64
  %78 = getelementptr inbounds float, ptr %75, i64 %77
  %79 = load <4 x float>, ptr %23, align 16, !tbaa !55
  %80 = load <4 x float>, ptr %24, align 16, !tbaa !55
  %81 = invoke noundef nofpclass(nan inf) <4 x float> @_ZL9prelu_sseDv4_fS_(<4 x float> noundef nofpclass(nan inf) %79, <4 x float> noundef nofpclass(nan inf) %80)
          to label %82 unwind label %93

82:                                               ; preds = %74
  invoke void @_ZL12_mm_store_psPfDv4_f(ptr noundef %78, <4 x float> noundef nofpclass(nan inf) %81)
          to label %83 unwind label %93

83:                                               ; preds = %82
  call void @llvm.lifetime.end.p0(i64 16, ptr %24) #6
  call void @llvm.lifetime.end.p0(i64 16, ptr %23) #6
  call void @llvm.lifetime.end.p0(i64 4, ptr %22) #6
  br label %84

84:                                               ; preds = %83
  br label %85

85:                                               ; preds = %84
  %86 = load i32, ptr %13, align 4, !tbaa !23
  %87 = add nsw i32 %86, 1
  store i32 %87, ptr %13, align 4, !tbaa !23
  br label %50

88:                                               ; preds = %54
  br label %89

89:                                               ; preds = %88
  %90 = load ptr, ptr %7, align 8
  %91 = load i32, ptr %90, align 4, !tbaa !23
  call void @__kmpc_for_static_fini(ptr @1, i32 %91)
  call void @llvm.lifetime.end.p0(i64 4, ptr %21) #6
  call void @llvm.lifetime.end.p0(i64 4, ptr %20) #6
  call void @llvm.lifetime.end.p0(i64 4, ptr %19) #6
  call void @llvm.lifetime.end.p0(i64 4, ptr %18) #6
  call void @llvm.lifetime.end.p0(i64 4, ptr %17) #6
  br label %92

92:                                               ; preds = %89, %6
  call void @llvm.lifetime.end.p0(i64 4, ptr %15) #6
  call void @llvm.lifetime.end.p0(i64 4, ptr %14) #6
  call void @llvm.lifetime.end.p0(i64 4, ptr %13) #6
  ret void

93:                                               ; preds = %82, %74, %68, %55
  %94 = landingpad { ptr, i32 }
          catch ptr null
  %95 = extractvalue { ptr, i32 } %94, 0
  call void @__clang_call_terminate(ptr %95) #19
  unreachable
}